target datalayout = "e-m:e-p270:32:32-p271:32:32-p272:64:64-i64:64-i128:128-f80:128-n8:16:32:64-S128"
target triple = "x86_64-pc-linux-gnu"

%struct.AVStream = type { ptr, i32, i32, ptr, ptr, %struct.AVRational, i64, i64, i64, i32, i32, %struct.AVRational, ptr, %struct.AVRational, %struct.AVPacket, i32, %struct.AVRational, i32 }
%struct.AVPacket = type { ptr, i64, i64, ptr, i32, i32, i32, ptr, i32, i64, i64, ptr, ptr, %struct.AVRational }
%struct.AVRational = type { i32, i32 }
%struct.AVFormatContext = type { ptr, ptr, ptr, ptr, ptr, i32, i32, ptr, i32, ptr, i32, ptr, ptr, i64, i64, i64, i32, i32, i32, i64, i64, ptr, i32, i32, ptr, i32, i32, i32, i32, ptr, i64, i32, i32, %struct.AVIOInterruptCB, i32, i32, i32, i32, i64, i32, i32, i32, i32, i32, i32, i32, i32, i32, i32, i32, i32, i64, i32, i32, i32, i32, i32, ptr, ptr, ptr, ptr, i32, ptr, ptr, ptr, ptr, i32, ptr, ptr, i64, ptr, ptr, ptr, i64 }
%struct.AVIOInterruptCB = type { ptr, ptr }
%struct.FormatContextInternal = type { %struct.FFFormatContext, %union.anon }
%struct.FFFormatContext = type { %struct.AVFormatContext, i32, %struct.PacketList, i64, ptr, ptr, i32, ptr, i32 }
%struct.PacketList = type { ptr, ptr }
%union.anon = type { %struct.anon.1 }
%struct.anon.1 = type { %struct.PacketList, i32, %struct.PacketList, i32, i32 }

@.str.2 = private unnamed_addr constant [58 x i8] c"Attached picture on stream %d has invalid size, ignoring\0A\00", align 1

; Function Attrs: alwaysinline nounwind uwtable
define internal ptr @ff_fc_internal(ptr noundef %0) #1 {
  %2 = alloca ptr, align 8
  store ptr %0, ptr %2, align 8, !tbaa !35
  %3 = load ptr, ptr %2, align 8, !tbaa !35
  ret ptr %3
}

; Function Attrs: nounwind uwtable
define i32 @avformat_queue_attached_pictures(ptr noundef %0) #0 {
  %2 = alloca i32, align 4
  %3 = alloca ptr, align 8
  %4 = alloca ptr, align 8
  %5 = alloca i32, align 4
  %6 = alloca i32, align 4
  %7 = alloca i32, align 4
  store ptr %0, ptr %3, align 8, !tbaa !35
  call void @llvm.lifetime.start.p0(i64 8, ptr %4) #6
  %8 = load ptr, ptr %3, align 8, !tbaa !35
  %9 = call ptr @ff_fc_internal(ptr noundef %8)
  store ptr %9, ptr %4, align 8, !tbaa !38
  call void @llvm.lifetime.start.p0(i64 4, ptr %5) #6
  call void @llvm.lifetime.start.p0(i64 4, ptr %6) #6
  store i32 0, ptr %6, align 4, !tbaa !33
  br label %10

10:                                               ; preds = %74, %1
  %11 = load i32, ptr %6, align 4, !tbaa !33
  %12 = load ptr, ptr %3, align 8, !tbaa !35
  %13 = getelementptr inbounds nuw %struct.AVFormatContext, ptr %12, i32 0, i32 6
  %14 = load i32, ptr %13, align 4, !tbaa !63
  %15 = icmp ult i32 %11, %14
  br i1 %15, label %17, label %16

16:                                               ; preds = %10
  store i32 2, ptr %7, align 4
  br label %77

17:                                               ; preds = %10
  %18 = load ptr, ptr %3, align 8, !tbaa !35
  %19 = getelementptr inbounds nuw %struct.AVFormatContext, ptr %18, i32 0, i32 7
  %20 = load ptr, ptr %19, align 8, !tbaa !64
  %21 = load i32, ptr %6, align 4, !tbaa !33
  %22 = zext i32 %21 to i64
  %23 = getelementptr inbounds nuw ptr, ptr %20, i64 %22
  %24 = load ptr, ptr %23, align 8, !tbaa !4
  %25 = getelementptr inbounds nuw %struct.AVStream, ptr %24, i32 0, i32 9
  %26 = load i32, ptr %25, align 8, !tbaa !65
  %27 = and i32 %26, 1024
  %28 = icmp ne i32 %27, 0
  br i1 %28, label %29, label %73

29:                                               ; preds = %17
  %30 = load ptr, ptr %3, align 8, !tbaa !35
  %31 = getelementptr inbounds nuw %struct.AVFormatContext, ptr %30, i32 0, i32 7
  %32 = load ptr, ptr %31, align 8, !tbaa !64
  %33 = load i32, ptr %6, align 4, !tbaa !33
  %34 = zext i32 %33 to i64
  %35 = getelementptr inbounds nuw ptr, ptr %32, i64 %34
  %36 = load ptr, ptr %35, align 8, !tbaa !4
  %37 = getelementptr inbounds nuw %struct.AVStream, ptr %36, i32 0, i32 10
  %38 = load i32, ptr %37, align 4, !tbaa !66
  %39 = icmp slt i32 %38, 48
  br i1 %39, label %40, label %73

40:                                               ; preds = %29
  %41 = load ptr, ptr %3, align 8, !tbaa !35
  %42 = getelementptr inbounds nuw %struct.AVFormatContext, ptr %41, i32 0, i32 7
  %43 = load ptr, ptr %42, align 8, !tbaa !64
  %44 = load i32, ptr %6, align 4, !tbaa !33
  %45 = zext i32 %44 to i64
  %46 = getelementptr inbounds nuw ptr, ptr %43, i64 %45
  %47 = load ptr, ptr %46, align 8, !tbaa !4
  %48 = getelementptr inbounds nuw %struct.AVStream, ptr %47, i32 0, i32 14
  %49 = getelementptr inbounds nuw %struct.AVPacket, ptr %48, i32 0, i32 4
  %50 = load i32, ptr %49, align 8, !tbaa !67
  %51 = icmp sle i32 %50, 0
  br i1 %51, label %52, label %55

52:                                               ; preds = %40
  %53 = load ptr, ptr %3, align 8, !tbaa !35
  %54 = load i32, ptr %6, align 4, !tbaa !33
  call void (ptr, i32, ptr, ...) @av_log(ptr noundef %53, i32 noundef 24, ptr noundef @.str.2, i32 noundef %54)
  br label %74

55:                                               ; preds = %40
  %56 = load ptr, ptr %4, align 8, !tbaa !38
  %57 = getelementptr inbounds nuw %struct.FormatContextInternal, ptr %56, i32 0, i32 1
  %58 = getelementptr inbounds nuw %struct.anon.1, ptr %57, i32 0, i32 0
  %59 = load ptr, ptr %3, align 8, !tbaa !35
  %60 = getelementptr inbounds nuw %struct.AVFormatContext, ptr %59, i32 0, i32 7
  %61 = load ptr, ptr %60, align 8, !tbaa !64
  %62 = load i32, ptr %6, align 4, !tbaa !33
  %63 = zext i32 %62 to i64
  %64 = getelementptr inbounds nuw ptr, ptr %61, i64 %63
  %65 = load ptr, ptr %64, align 8, !tbaa !4
  %66 = getelementptr inbounds nuw %struct.AVStream, ptr %65, i32 0, i32 14
  %67 = call i32 @avpriv_packet_list_put(ptr noundef %58, ptr noundef %66, ptr noundef @av_packet_ref, i32 noundef 0)
  store i32 %67, ptr %5, align 4, !tbaa !33
  %68 = load i32, ptr %5, align 4, !tbaa !33
  %69 = icmp slt i32 %68, 0
  br i1 %69, label %70, label %72

70:                                               ; preds = %55
  %71 = load i32, ptr %5, align 4, !tbaa !33
  store i32 %71, ptr %2, align 4
  store i32 1, ptr %7, align 4
  br label %77

72:                                               ; preds = %55
  br label %73

73:                                               ; preds = %72, %29, %17
  br label %74

74:                                               ; preds = %73, %52
  %75 = load i32, ptr %6, align 4, !tbaa !33
  %76 = add i32 %75, 1
  store i32 %76, ptr %6, align 4, !tbaa !33
  br label %10, !llvm.loop !68

77:                                               ; preds = %70, %16
  call void @llvm.lifetime.end.p0(i64 4, ptr %6) #6
  %78 = load i32, ptr %7, align 4
  switch i32 %78, label %80 [
    i32 2, label %79
  ]

79:                                               ; preds = %77
  store i32 0, ptr %2, align 4
  store i32 1, ptr %7, align 4
  br label %80

80:                                               ; preds = %79, %77
  call void @llvm.lifetime.end.p0(i64 4, ptr %5) #6
  call void @llvm.lifetime.end.p0(i64 8, ptr %4) #6
  %81 = load i32, ptr %2, align 4
  ret i32 %81
}