; Function Attrs: nounwind uwtable
define range(i32 -2147483648, 1) i32 @avformat_queue_attached_pictures(ptr noundef %0) local_unnamed_addr #2 {
  %2 = getelementptr inbounds nuw i8, ptr %0, i64 44
  %3 = load i32, ptr %2, align 4, !tbaa !54
  %.not2122.not = icmp eq i32 %3, 0
  br i1 %.not2122.not, label %._crit_edge, label %.lr.ph

.lr.ph:                                           ; preds = %1
  %4 = getelementptr inbounds nuw i8, ptr %0, i64 48
  %5 = getelementptr inbounds nuw i8, ptr %0, i64 544
  br label %6

6:                                                ; preds = %.lr.ph, %27
  %indvars.iv = phi i64 [ 0, %.lr.ph ], [ %indvars.iv.next, %27 ]
  %7 = load ptr, ptr %4, align 8, !tbaa !55
  %8 = getelementptr inbounds nuw ptr, ptr %7, i64 %indvars.iv
  %9 = load ptr, ptr %8, align 8, !tbaa !56
  %10 = getelementptr inbounds nuw i8, ptr %9, i64 64
  %11 = load i32, ptr %10, align 8, !tbaa !58
  %12 = and i32 %11, 1024
  %.not = icmp eq i32 %12, 0
  br i1 %.not, label %27, label %13

13:                                               ; preds = %6
  %14 = getelementptr inbounds nuw i8, ptr %9, i64 68
  %15 = load i32, ptr %14, align 4, !tbaa !59
  %16 = icmp slt i32 %15, 48
  br i1 %16, label %17, label %27

17:                                               ; preds = %13
  %18 = getelementptr inbounds nuw i8, ptr %9, i64 128
  %19 = load i32, ptr %18, align 8, !tbaa !60
  %20 = icmp slt i32 %19, 1
  br i1 %20, label %21, label %23

21:                                               ; preds = %17
  %22 = trunc nuw i64 %indvars.iv to i32
  tail call void (ptr, i32, ptr, ...) @av_log(ptr noundef nonnull %0, i32 noundef 24, ptr noundef nonnull @.str.2, i32 noundef %22) #6
  br label %27

23:                                               ; preds = %17
  %24 = getelementptr inbounds nuw i8, ptr %9, i64 96
  %25 = tail call i32 @avpriv_packet_list_put(ptr noundef nonnull %5, ptr noundef nonnull %24, ptr noundef nonnull @av_packet_ref, i32 noundef 0) #6
  %26 = icmp slt i32 %25, 0
  br i1 %26, label %._crit_edge, label %27

27:                                               ; preds = %6, %13, %23, %21
  %indvars.iv.next = add nuw nsw i64 %indvars.iv, 1
  %28 = load i32, ptr %2, align 4, !tbaa !54
  %29 = zext i32 %28 to i64
  %.not21 = icmp samesign ult i64 %indvars.iv.next, %29
  br i1 %.not21, label %6, label %._crit_edge, !llvm.loop !61

._crit_edge:                                      ; preds = %27, %23, %1
  %spec.select = phi i32 [ 0, %1 ], [ %25, %23 ], [ 0, %27 ]
  ret i32 %spec.select
}